(lp1
(dp2
S'n_hidden'
p3
I20
sa(dp4
S'lambda'
p5
F0.59999999999999998
sa(dp6
S'w1'
p7
cnumpy.core.multiarray
_reconstruct
p8
(cnumpy
ndarray
p9
(I0
tS'b'
tRp10
(I1
(I0
tcnumpy
dtype
p11
(S'f8'
I0
I1
tRp12
(I3
S'<'
NNNI-1
I-1
I0
tbI00
S''
tbsa(dp13
S'w2'
p14
g8
(g9
(I0
tS'b'
tRp15
(I1
(I0
tg12
I00
S''
tbsa.